target datalayout = "e-m:e-p270:32:32-p271:32:32-p272:64:64-i64:64-i128:128-f80:128-n8:16:32:64-S128"
target triple = "x86_64-pc-linux-gnu"

%"class.std::__cxx11::basic_string" = type { %"struct.std::__cxx11::basic_string<char>::_Alloc_hider", i64, %union.anon }
%"struct.std::__cxx11::basic_string<char>::_Alloc_hider" = type { ptr }
%union.anon = type { i64, [8 x i8] }
%"class.llvm::FoldingSetBase::Node" = type { ptr }
%"class.llvm::SmallVectorBase" = type { ptr, i32, i32 }
%"class.clang::ento::PathDiagnosticLocation" = type <{ i32, [4 x i8], ptr, ptr, ptr, %"class.clang::FullSourceLoc", %"class.clang::ento::PathDiagnosticRange", [4 x i8] }>
%"class.clang::FullSourceLoc" = type { %"class.clang::SourceLocation", ptr }
%"class.clang::SourceLocation" = type { i32 }
%"class.clang::ento::PathDiagnosticRange" = type <{ %"class.clang::SourceRange", i8, [3 x i8] }>
%"class.clang::SourceRange" = type { %"class.clang::SourceLocation", %"class.clang::SourceLocation" }
%"class.std::unique_ptr.767" = type { %"struct.std::__uniq_ptr_data.768" }
%"struct.std::__uniq_ptr_data.768" = type { %"class.std::__uniq_ptr_impl.769" }
%"class.std::__uniq_ptr_impl.769" = type { %"class.std::tuple.770" }
%"class.std::tuple.770" = type { %"struct.std::_Tuple_impl.771" }
%"struct.std::_Tuple_impl.771" = type { %"struct.std::_Head_base.774" }
%"struct.std::_Head_base.774" = type { ptr }
%"class.clang::ento::PathDiagnostic" = type { %"class.llvm::FoldingSetBase::Node", %"class.std::__cxx11::basic_string", ptr, %"class.std::__cxx11::basic_string", %"class.std::__cxx11::basic_string", %"class.std::__cxx11::basic_string", %"class.std::__cxx11::basic_string", %"class.std::deque", %"class.clang::ento::PathDiagnosticLocation", %"class.clang::ento::PathPieces", %"class.llvm::SmallVector.853", %"class.clang::ento::PathDiagnosticLocation", ptr, ptr, %"class.std::unique_ptr.858", ptr }
%"class.std::deque" = type { %"class.std::_Deque_base" }
%"class.std::_Deque_base" = type { %"struct.std::_Deque_base<std::__cxx11::basic_string<char>, std::allocator<std::__cxx11::basic_string<char>>>::_Deque_impl" }
%"struct.std::_Deque_base<std::__cxx11::basic_string<char>, std::allocator<std::__cxx11::basic_string<char>>>::_Deque_impl" = type { %"struct.std::_Deque_base<std::__cxx11::basic_string<char>, std::allocator<std::__cxx11::basic_string<char>>>::_Deque_impl_data" }
%"struct.std::_Deque_base<std::__cxx11::basic_string<char>, std::allocator<std::__cxx11::basic_string<char>>>::_Deque_impl_data" = type { ptr, i64, %"struct.std::_Deque_iterator", %"struct.std::_Deque_iterator" }
%"struct.std::_Deque_iterator" = type { ptr, ptr, ptr, ptr }
%"class.clang::ento::PathPieces" = type { %"class.std::__cxx11::list" }
%"class.std::__cxx11::list" = type { %"class.std::__cxx11::_List_base" }
%"class.std::__cxx11::_List_base" = type { %"struct.std::__cxx11::_List_base<std::shared_ptr<clang::ento::PathDiagnosticPiece>, std::allocator<std::shared_ptr<clang::ento::PathDiagnosticPiece>>>::_List_impl" }
%"struct.std::__cxx11::_List_base<std::shared_ptr<clang::ento::PathDiagnosticPiece>, std::allocator<std::shared_ptr<clang::ento::PathDiagnosticPiece>>>::_List_impl" = type { %"struct.std::__detail::_List_node_header" }
%"struct.std::__detail::_List_node_header" = type { %"struct.std::__detail::_List_node_base", i64 }
%"struct.std::__detail::_List_node_base" = type { ptr, ptr }
%"class.llvm::SmallVector.853" = type { %"class.llvm::SmallVectorImpl.854", %"struct.llvm::SmallVectorStorage.857" }
%"class.llvm::SmallVectorImpl.854" = type { %"class.llvm::SmallVectorTemplateBase.855" }
%"class.llvm::SmallVectorTemplateBase.855" = type { %"class.llvm::SmallVectorTemplateCommon.856" }
%"class.llvm::SmallVectorTemplateCommon.856" = type { %"class.llvm::SmallVectorBase" }
%"struct.llvm::SmallVectorStorage.857" = type { [24 x i8] }
%"class.std::unique_ptr.858" = type { %"struct.std::__uniq_ptr_data.859" }
%"struct.std::__uniq_ptr_data.859" = type { %"class.std::__uniq_ptr_impl.860" }
%"class.std::__uniq_ptr_impl.860" = type { %"class.std::tuple.861" }
%"class.std::tuple.861" = type { %"struct.std::_Tuple_impl.862" }
%"struct.std::_Tuple_impl.862" = type { %"struct.std::_Head_base.865" }
%"struct.std::_Head_base.865" = type { ptr }
%"class.(anonymous namespace)::PathDiagnosticConstruct" = type { ptr, ptr, %"class.llvm::DenseMap.1168", ptr, %"class.llvm::SmallVector.1171", %"class.std::unique_ptr.767" }
%"class.llvm::DenseMap.1168" = type <{ ptr, i32, i32, i32, [4 x i8] }>
%"class.llvm::SmallVector.1171" = type { %"class.llvm::SmallVectorImpl.1172", %"struct.llvm::SmallVectorStorage.1175" }
%"class.llvm::SmallVectorImpl.1172" = type { %"class.llvm::SmallVectorTemplateBase.1173" }
%"class.llvm::SmallVectorTemplateBase.1173" = type { %"class.llvm::SmallVectorTemplateCommon.1174" }
%"class.llvm::SmallVectorTemplateCommon.1174" = type { %"class.llvm::SmallVectorBase" }
%"struct.llvm::SmallVectorStorage.1175" = type { [96 x i8] }

; Function Attrs: mustprogress nounwind uwtable
define linkonce_odr hidden noundef nonnull align 8 dereferenceable(8) ptr @_ZNSt10_Head_baseILm0EPN5clang4ento14PathDiagnosticELb0EE7_M_headERKS4_(ptr noundef nonnull align 8 dereferenceable(8) %0) #1 comdat align 2 {
  %2 = alloca ptr, align 8
  store ptr %0, ptr %2, align 8
  %3 = load ptr, ptr %2, align 8
  %4 = getelementptr inbounds nuw %"struct.std::_Head_base.774", ptr %3, i32 0, i32 0
  ret ptr %4
}

; Function Attrs: mustprogress nounwind uwtable
define linkonce_odr hidden noundef nonnull align 8 dereferenceable(8) ptr @_ZNSt11_Tuple_implILm0EJPN5clang4ento14PathDiagnosticESt14default_deleteIS2_EEE7_M_headERKS6_(ptr noundef nonnull align 8 dereferenceable(8) %0) #1 comdat align 2 {
  %2 = alloca ptr, align 8
  store ptr %0, ptr %2, align 8
  %3 = load ptr, ptr %2, align 8
  %4 = call noundef nonnull align 8 dereferenceable(8) ptr @_ZNSt10_Head_baseILm0EPN5clang4ento14PathDiagnosticELb0EE7_M_headERKS4_(ptr noundef nonnull align 8 dereferenceable(8) %3) #15
  ret ptr %4
}

; Function Attrs: mustprogress nounwind uwtable
define linkonce_odr noundef nonnull align 8 dereferenceable(8) ptr @_ZSt12__get_helperILm0EPN5clang4ento14PathDiagnosticEJSt14default_deleteIS2_EEERKT0_RKSt11_Tuple_implIXT_EJS6_DpT1_EE(ptr noundef nonnull align 8 dereferenceable(8) %0) #1 comdat {
  %2 = alloca ptr, align 8
  store ptr %0, ptr %2, align 8
  %3 = load ptr, ptr %2, align 8
  %4 = call noundef nonnull align 8 dereferenceable(8) ptr @_ZNSt11_Tuple_implILm0EJPN5clang4ento14PathDiagnosticESt14default_deleteIS2_EEE7_M_headERKS6_(ptr noundef nonnull align 8 dereferenceable(8) %3) #15
  ret ptr %4
}

; Function Attrs: mustprogress nounwind uwtable
define linkonce_odr hidden noundef ptr @_ZN4llvm25SmallVectorTemplateCommonIPN5clang4ento10PathPiecesEvE5beginEv(ptr noundef nonnull align 8 dereferenceable(16) %0) #1 comdat align 2 {
  %2 = alloca ptr, align 8
  store ptr %0, ptr %2, align 8
  %3 = load ptr, ptr %2, align 8
  %4 = getelementptr inbounds nuw %"class.llvm::SmallVectorBase", ptr %3, i32 0, i32 0
  %5 = load ptr, ptr %4, align 8
  ret ptr %5
}

; Function Attrs: mustprogress nounwind uwtable
define linkonce_odr noundef nonnull align 8 dereferenceable(8) ptr @_ZSt3getILm0EJPN5clang4ento14PathDiagnosticESt14default_deleteIS2_EEERKNSt13tuple_elementIXT_ESt5tupleIJDpT0_EEE4typeERKSA_(ptr noundef nonnull align 8 dereferenceable(8) %0) #1 comdat {
  %2 = alloca ptr, align 8
  store ptr %0, ptr %2, align 8
  %3 = load ptr, ptr %2, align 8
  %4 = call noundef nonnull align 8 dereferenceable(8) ptr @_ZSt12__get_helperILm0EPN5clang4ento14PathDiagnosticEJSt14default_deleteIS2_EEERKT0_RKSt11_Tuple_implIXT_EJS6_DpT1_EE(ptr noundef nonnull align 8 dereferenceable(8) %3) #15
  ret ptr %4
}

; Function Attrs: mustprogress nounwind uwtable
define linkonce_odr hidden noundef ptr @_ZN4llvm25SmallVectorTemplateCommonIPN5clang4ento10PathPiecesEvE3endEv(ptr noundef nonnull align 8 dereferenceable(16) %0) #1 comdat align 2 {
  %2 = alloca ptr, align 8
  store ptr %0, ptr %2, align 8
  %3 = load ptr, ptr %2, align 8
  %4 = call noundef ptr @_ZN4llvm25SmallVectorTemplateCommonIPN5clang4ento10PathPiecesEvE5beginEv(ptr noundef nonnull align 8 dereferenceable(16) %3)
  %5 = call noundef i64 @_ZNK4llvm15SmallVectorBaseIjE4sizeEv(ptr noundef nonnull align 8 dereferenceable(16) %3)
  %6 = getelementptr inbounds ptr, ptr %4, i64 %5
  ret ptr %6
}

; Function Attrs: mustprogress nounwind uwtable
define linkonce_odr hidden noundef ptr @_ZNKSt15__uniq_ptr_implIN5clang4ento14PathDiagnosticESt14default_deleteIS2_EE6_M_ptrEv(ptr noundef nonnull align 8 dereferenceable(8) %0) #1 comdat align 2 {
  %2 = alloca ptr, align 8
  store ptr %0, ptr %2, align 8
  %3 = load ptr, ptr %2, align 8
  %4 = getelementptr inbounds nuw %"class.std::__uniq_ptr_impl.769", ptr %3, i32 0, i32 0
  %5 = call noundef nonnull align 8 dereferenceable(8) ptr @_ZSt3getILm0EJPN5clang4ento14PathDiagnosticESt14default_deleteIS2_EEERKNSt13tuple_elementIXT_ESt5tupleIJDpT0_EEE4typeERKSA_(ptr noundef nonnull align 8 dereferenceable(8) %4) #15
  %6 = load ptr, ptr %5, align 8
  ret ptr %6
}

; Function Attrs: mustprogress nounwind uwtable
define linkonce_odr hidden noundef nonnull align 8 dereferenceable(8) ptr @_ZN4llvm25SmallVectorTemplateCommonIPN5clang4ento10PathPiecesEvE4backEv(ptr noundef nonnull align 8 dereferenceable(16) %0) #1 comdat align 2 {
  %2 = alloca ptr, align 8
  store ptr %0, ptr %2, align 8
  %3 = load ptr, ptr %2, align 8
  %4 = call noundef ptr @_ZN4llvm25SmallVectorTemplateCommonIPN5clang4ento10PathPiecesEvE3endEv(ptr noundef nonnull align 8 dereferenceable(16) %3)
  %5 = getelementptr inbounds ptr, ptr %4, i64 -1
  ret ptr %5
}

; Function Attrs: mustprogress nounwind uwtable
define linkonce_odr hidden noundef ptr @_ZNKSt10unique_ptrIN5clang4ento14PathDiagnosticESt14default_deleteIS2_EE3getEv(ptr noundef nonnull align 8 dereferenceable(8) %0) #1 comdat align 2 {
  %2 = alloca ptr, align 8
  store ptr %0, ptr %2, align 8
  %3 = load ptr, ptr %2, align 8
  %4 = getelementptr inbounds nuw %"class.std::unique_ptr.767", ptr %3, i32 0, i32 0
  %5 = call noundef ptr @_ZNKSt15__uniq_ptr_implIN5clang4ento14PathDiagnosticESt14default_deleteIS2_EE6_M_ptrEv(ptr noundef nonnull align 8 dereferenceable(8) %4) #15
  ret ptr %5
}

; Function Attrs: mustprogress nounwind uwtable
define linkonce_odr hidden noundef nonnull align 8 dereferenceable(24) ptr @_ZN5clang4ento14PathDiagnostic13getActivePathEv(ptr noundef nonnull align 8 dereferenceable(480) %0) #1 comdat align 2 {
  %2 = alloca ptr, align 8
  %3 = alloca ptr, align 8
  store ptr %0, ptr %3, align 8
  %4 = load ptr, ptr %3, align 8
  %5 = getelementptr inbounds nuw %"class.clang::ento::PathDiagnostic", ptr %4, i32 0, i32 10
  %6 = call noundef zeroext i1 @_ZNK4llvm15SmallVectorBaseIjE5emptyEv(ptr noundef nonnull align 8 dereferenceable(16) %5)
  br i1 %6, label %7, label %9

7:                                                ; preds = %1
  %8 = getelementptr inbounds nuw %"class.clang::ento::PathDiagnostic", ptr %4, i32 0, i32 9
  store ptr %8, ptr %2, align 8
  br label %13

9:                                                ; preds = %1
  %10 = getelementptr inbounds nuw %"class.clang::ento::PathDiagnostic", ptr %4, i32 0, i32 10
  %11 = call noundef nonnull align 8 dereferenceable(8) ptr @_ZN4llvm25SmallVectorTemplateCommonIPN5clang4ento10PathPiecesEvE4backEv(ptr noundef nonnull align 8 dereferenceable(16) %10)
  %12 = load ptr, ptr %11, align 8
  store ptr %12, ptr %2, align 8
  br label %13

13:                                               ; preds = %9, %7
  %14 = load ptr, ptr %2, align 8
  ret ptr %14
}

; Function Attrs: mustprogress nounwind uwtable
define linkonce_odr hidden noundef ptr @_ZNKSt10unique_ptrIN5clang4ento14PathDiagnosticESt14default_deleteIS2_EEptEv(ptr noundef nonnull align 8 dereferenceable(8) %0) #1 comdat align 2 {
  %2 = alloca ptr, align 8
  store ptr %0, ptr %2, align 8
  %3 = load ptr, ptr %2, align 8
  %4 = call noundef ptr @_ZNKSt10unique_ptrIN5clang4ento14PathDiagnosticESt14default_deleteIS2_EE3getEv(ptr noundef nonnull align 8 dereferenceable(8) %3) #15
  ret ptr %4
}

; Function Attrs: mustprogress nounwind uwtable
define internal noundef nonnull align 8 dereferenceable(24) ptr @_ZN12_GLOBAL__N_123PathDiagnosticConstruct13getActivePathEv(ptr noundef nonnull align 8 dereferenceable(168) %0) #1 align 2 {
  %2 = alloca ptr, align 8
  store ptr %0, ptr %2, align 8
  %3 = load ptr, ptr %2, align 8
  %4 = getelementptr inbounds nuw %"class.(anonymous namespace)::PathDiagnosticConstruct", ptr %3, i32 0, i32 5
  %5 = call noundef ptr @_ZNKSt10unique_ptrIN5clang4ento14PathDiagnosticESt14default_deleteIS2_EEptEv(ptr noundef nonnull align 8 dereferenceable(8) %4) #15
  %6 = call noundef nonnull align 8 dereferenceable(24) ptr @_ZN5clang4ento14PathDiagnostic13getActivePathEv(ptr noundef nonnull align 8 dereferenceable(480) %5)
  ret ptr %6
}