; Function Attrs: mustprogress nounwind uwtable
define internal fastcc noundef nonnull align 8 dereferenceable(24) ptr @_ZN12_GLOBAL__N_123PathDiagnosticConstruct13getActivePathEv(ptr %.160.val) unnamed_addr #3 align 2 {
  %1 = getelementptr inbounds nuw i8, ptr %.160.val, i64 344
  %2 = tail call noundef zeroext i1 @_ZNK4llvm15SmallVectorBaseIjE5emptyEv(ptr noundef nonnull align 8 dereferenceable(16) %1) #26
  br i1 %2, label %3, label %5

3:                                                ; preds = %0
  %4 = getelementptr inbounds nuw i8, ptr %.160.val, i64 320
  br label %_ZN5clang4ento14PathDiagnostic13getActivePathEv.exit

5:                                                ; preds = %0
  %6 = load ptr, ptr %1, align 8
  %7 = tail call noundef i64 @_ZNK4llvm15SmallVectorBaseIjE4sizeEv(ptr noundef nonnull align 8 dereferenceable(16) %1) #26
  %8 = getelementptr inbounds ptr, ptr %6, i64 %7
  %9 = getelementptr inbounds i8, ptr %8, i64 -8
  %10 = load ptr, ptr %9, align 8
  br label %_ZN5clang4ento14PathDiagnostic13getActivePathEv.exit

_ZN5clang4ento14PathDiagnostic13getActivePathEv.exit: ; preds = %3, %5
  %.0.i = phi ptr [ %4, %3 ], [ %10, %5 ]
  ret ptr %.0.i
}